target datalayout = "e-m:e-p270:32:32-p271:32:32-p272:64:64-i64:64-i128:128-f80:128-n8:16:32:64-S128"
target triple = "x86_64-pc-linux-gnu"

%"class.sat::literal" = type { i32 }
%class.vector = type { ptr }
%class.svector.5 = type { %class.vector.6 }
%class.vector.6 = type { ptr }
%"class.sat::proof_trim" = type { %"class.sat::solver", %class.svector.27, %class.svector.27, %class.svector.27, %class.uint_set, %class.uint_set, %class.uint_set, ptr, %class.vector.51, %class.vector, %class.map.52, %class.svector.15, %class.uint_set }
%"class.sat::solver" = type { %"class.sat::solver_core", i8, [7 x i8], %"struct.sat::config", %"struct.sat::stats", %class.scoped_ptr, %class.scoped_ptr.0, ptr, %"class.sat::drat", [2 x %"class.sat::clause_allocator"], i8, %class.random_gen, %"class.sat::cleaner", %class.svector.12, %"class.sat::model_converter", i8, %"class.sat::simplifier", %"class.sat::scc", %"class.sat::asymm_branch", %"class.sat::probing", i8, [7 x i8], %"class.sat::mus", i8, i8, [6 x i8], %"class.sat::justification", %"class.sat::literal", %class.ptr_vector.21, %class.ptr_vector.21, i32, %class.svector.5, %class.svector.5, %class.svector.5, %class.svector.5, %class.vector.39, %class.svector.12, %class.svector.40, %class.svector.15, %class.svector.15, %class.svector.15, %class.svector.15, %class.svector.15, %class.svector.5, %class.svector.5, i32, %class.svector.27, %class.svector.5, i32, %class.svector.42, %class.svector.42, %class.svector.42, %class.svector.42, %class.svector.42, i32, double, %class.svector.15, %class.svector.15, %class.svector.15, i8, %class.svector.25, i32, i32, i32, i32, i32, i32, %"struct.sat::backoff", i32, i32, %"struct.sat::backoff", %"struct.sat::backoff", %class.var_queue, i32, i32, i32, %class.ema, %class.ema, %class.ema, %class.ema, %class.ema, %class.svector.27, %class.svector.29, %"class.std::__cxx11::basic_string", i8, i8, %class.visit_helper, %class.svector.44, %class.scoped_limit_trail, %class.stopwatch, %class.params_ref, %"struct.sat::no_drat_params", %class.scoped_ptr.46, %class.svector.27, %"class.sat::literal_set", %"class.sat::literal_set", %class.svector.27, i32, i32, i32, i32, i8, ptr, ptr, %class.statistics, i32, i32, i32, i32, i8, i32, i32, i32, i32, i32, i32, i32, double, i32, double, i8, i8, %class.svector.27, i8, %class.svector.42, i32, i32, i32, %class.svector.27, %class.svector.27, %class.svector.25, %class.svector.5, %class.approx_set_tpl, %class.svector.27, %class.svector.27, %class.vector.11, %class.svector.27, %class.svector.37, %class.u_map, %class.svector.27 }
%"class.sat::solver_core" = type { ptr, ptr }
%"struct.sat::config" = type <{ i64, i32, i32, i32, i8, [3 x i8], i32, i32, double, i32, i8, [3 x i8], i32, i8, [3 x i8], i32, [4 x i8], double, double, i32, i32, double, double, i32, [4 x i8], %class.symbol, double, i32, i32, i8, [3 x i8], i32, i32, i8, [3 x i8], i32, i8, [3 x i8], i32, i8, [3 x i8], i32, i8, i8, [2 x i8], i32, i8, i8, i8, i8, i8, i8, i8, i8, i32, i8, i8, i8, i8, i32, double, i32, [4 x i8], double, double, double, double, i32, i8, i8, [2 x i8], double, i8, i8, [2 x i8], i32, double, i32, i32, i32, i32, i32, i32, i32, i32, i8, i8, i8, i8, i32, i32, i8, i8, i8, i8, i8, i8, i8, [5 x i8], %class.symbol, i8, i8, i8, i8, i8, i8, [2 x i8], i32, i32, i32, i8, [3 x i8], double, double, double, double, double, i8, [7 x i8] }>
%class.symbol = type { ptr }
%"struct.sat::stats" = type { i32, i32, i32, i32, i32, i32, i32, i32, i32, i32, i32, i32, i32, i32, i32, i32, i32, i32, i32, i32, i32 }
%class.scoped_ptr = type { ptr }
%class.scoped_ptr.0 = type { ptr }
%"class.sat::drat" = type { ptr, %class.svector, ptr, %"class.sat::clause_allocator", ptr, ptr, %class.svector.7, %class.svector.9, %class.vector.11, %class.svector.12, i8, i8, i8, i8, i8, %"struct.sat::drat::stats" }
%class.svector = type { %class.vector.1 }
%class.vector.1 = type { ptr }
%"class.sat::clause_allocator" = type { %class.sat_allocator, %class.id_gen }
%class.sat_allocator = type { ptr, i64, %class.ptr_vector, ptr, [65 x %class.ptr_vector.3] }
%class.ptr_vector = type { %class.vector.2 }
%class.vector.2 = type { ptr }
%class.ptr_vector.3 = type { %class.vector.4 }
%class.vector.4 = type { ptr }
%class.id_gen = type { i32, %class.svector.5 }
%class.svector.7 = type { %class.vector.8 }
%class.vector.8 = type { ptr }
%class.svector.9 = type { %class.vector.10 }
%class.vector.10 = type { ptr }
%"struct.sat::drat::stats" = type { i32, i32, i32, i32 }
%class.random_gen = type { i32 }
%"class.sat::cleaner" = type { ptr, i32, i32, i32, i32 }
%"class.sat::model_converter" = type { %class.vector.14, i32, %class.svector.15, ptr, %class.svector.17 }
%class.vector.14 = type { ptr }
%class.svector.17 = type { %class.vector.18 }
%class.vector.18 = type { ptr }
%"class.sat::simplifier" = type { ptr, i32, %"class.sat::use_list", %"class.sat::ext_use_list", %"class.sat::clause_set", %class.svector.23, i32, %class.tracked_uint_set, i8, %"class.sat::tmp_clause", %class.svector.25, i32, i32, i8, i8, i8, i8, i32, i8, i8, i32, i8, i32, i8, i8, i32, i32, i32, i32, i32, i32, i32, i32, i32, i32, i8, i32, i8, i8, i32, i32, i32, i32, i32, i32, i32, i32, i32, i32, i32, i8, i32, %class.ptr_vector.21, %class.svector.27, %class.svector.29, %class.svector.29, %class.svector.27 }
%"class.sat::use_list" = type { %class.vector.19 }
%class.vector.19 = type { ptr }
%"class.sat::ext_use_list" = type { %class.vector.20 }
%class.vector.20 = type { ptr }
%"class.sat::clause_set" = type { %class.svector.5, %class.ptr_vector.21 }
%class.svector.23 = type { %class.vector.24 }
%class.vector.24 = type { ptr }
%class.tracked_uint_set = type { %class.svector.25, %class.svector.5 }
%"class.sat::tmp_clause" = type { ptr }
%"class.sat::scc" = type { ptr, i8, i8, i32, i32, %"class.sat::big" }
%"class.sat::big" = type { ptr, i32, %class.vector.31, %class.svector.15, %class.svector.32, %class.svector.32, %class.svector.27, %class.svector.27, i8, i8, %class.vector.31 }
%class.svector.32 = type { %class.vector.33 }
%class.vector.33 = type { ptr }
%class.vector.31 = type { ptr }
%"class.sat::asymm_branch" = type { ptr, %class.params_ref, i64, %class.random_gen, i32, i32, i8, i32, i32, i8, i8, i64, i32, i32, i32, %class.svector.27, %class.svector.27, %class.svector.34, %class.svector.34, %class.svector.27, %class.svector.27 }
%class.svector.34 = type { %class.vector.35 }
%class.vector.35 = type { ptr }
%"class.sat::probing" = type { ptr, i32, %"class.sat::literal_set", %class.svector.27, i32, i8, i32, i8, i8, i64, i32, %class.vector.36, %class.svector.37, %"class.sat::big" }
%class.vector.36 = type { ptr }
%"class.sat::mus" = type <{ ptr, %class.svector.27, %class.svector.27, i8, [7 x i8], %class.svector.12, i32, [4 x i8] }>
%"class.sat::justification" = type <{ i32, [4 x i8], i64, i32, [4 x i8] }>
%class.ptr_vector.21 = type { %class.vector.22 }
%class.vector.22 = type { ptr }
%class.vector.39 = type { ptr }
%class.svector.12 = type { %class.vector.13 }
%class.vector.13 = type { ptr }
%class.svector.40 = type { %class.vector.41 }
%class.vector.41 = type { ptr }
%"struct.sat::backoff" = type { i32, i32, i32, i32, i32 }
%class.var_queue = type { %class.heap }
%class.heap = type { %"struct.var_queue<svector<unsigned int>>::lt", %class.svector.32, %class.svector.32 }
%"struct.var_queue<svector<unsigned int>>::lt" = type { ptr }
%class.ema = type { double, double, double, i32, i32 }
%class.svector.29 = type { %class.vector.30 }
%class.vector.30 = type { ptr }
%"class.std::__cxx11::basic_string" = type { %"struct.std::__cxx11::basic_string<char>::_Alloc_hider", i64, %union.anon }
%"struct.std::__cxx11::basic_string<char>::_Alloc_hider" = type { ptr }
%union.anon = type { i64, [8 x i8] }
%class.visit_helper = type { %class.svector.5, i32, i32 }
%class.svector.44 = type { %class.vector.45 }
%class.vector.45 = type { ptr }
%class.scoped_limit_trail = type { %class.svector.5, i32, i32 }
%class.stopwatch = type <{ %"class.std::chrono::time_point", %"class.std::chrono::duration", i8, [7 x i8] }>
%"class.std::chrono::time_point" = type { %"class.std::chrono::duration" }
%"class.std::chrono::duration" = type { i64 }
%class.params_ref = type { ptr }
%"struct.sat::no_drat_params" = type { %class.params_ref }
%class.scoped_ptr.46 = type { ptr }
%"class.sat::literal_set" = type { %class.tracked_uint_set }
%class.statistics = type { %class.svector.47, %class.svector.49 }
%class.svector.47 = type { %class.vector.48 }
%class.vector.48 = type { ptr }
%class.svector.49 = type { %class.vector.50 }
%class.vector.50 = type { ptr }
%class.svector.42 = type { %class.vector.43 }
%class.vector.43 = type { ptr }
%class.svector.25 = type { %class.vector.26 }
%class.vector.26 = type { ptr }
%class.approx_set_tpl = type { i32 }
%class.vector.11 = type { ptr }
%class.svector.37 = type { %class.vector.38 }
%class.vector.38 = type { ptr }
%class.u_map = type { %class.map }
%class.map = type { %class.table2map }
%class.table2map = type { %class.core_hashtable }
%class.core_hashtable = type <{ ptr, i32, i32, i32, [4 x i8] }>
%class.svector.27 = type { %class.vector.28 }
%class.vector.28 = type { ptr }
%class.vector.51 = type { ptr }
%class.map.52 = type { %class.table2map.53 }
%class.table2map.53 = type { %class.core_hashtable.54 }
%class.core_hashtable.54 = type <{ ptr, i32, i32, i32, [4 x i8] }>
%class.svector.15 = type { %class.vector.16 }
%class.vector.16 = type { ptr }
%class.uint_set = type { %class.svector.5 }

; Function Attrs: mustprogress nounwind uwtable
define linkonce_odr hidden noundef nonnull align 4 dereferenceable(4) ptr @_ZNK6vectorI5lboolLb0EjEixEj(ptr noundef nonnull align 8 dereferenceable(8) %0, i32 noundef %1) #7 comdat align 2 {
  %3 = alloca ptr, align 8
  %4 = alloca i32, align 4
  store ptr %0, ptr %3, align 8, !tbaa !344
  store i32 %1, ptr %4, align 4, !tbaa !178
  %5 = load ptr, ptr %3, align 8
  %6 = getelementptr inbounds nuw %class.vector.13, ptr %5, i32 0, i32 0
  %7 = load ptr, ptr %6, align 8, !tbaa !346
  %8 = load i32, ptr %4, align 4, !tbaa !178
  %9 = zext i32 %8 to i64
  %10 = getelementptr inbounds nuw i32, ptr %7, i64 %9
  ret ptr %10
}

; Function Attrs: mustprogress nounwind uwtable
define linkonce_odr hidden noundef i32 @_ZNK3sat7literal5indexEv(ptr noundef nonnull align 4 dereferenceable(4) %0) #7 comdat align 2 {
  %2 = alloca ptr, align 8
  store ptr %0, ptr %2, align 8, !tbaa !207
  %3 = load ptr, ptr %2, align 8
  %4 = getelementptr inbounds nuw %"class.sat::literal", ptr %3, i32 0, i32 0
  %5 = load i32, ptr %4, align 4, !tbaa !236
  ret i32 %5
}

; Function Attrs: mustprogress nounwind uwtable
define linkonce_odr hidden noundef nonnull align 8 dereferenceable(20) ptr @_ZNK6vectorIN3sat13justificationELb0EjEixEj(ptr noundef nonnull align 8 dereferenceable(8) %0, i32 noundef %1) #7 comdat align 2 {
  %3 = alloca ptr, align 8
  %4 = alloca i32, align 4
  store ptr %0, ptr %3, align 8, !tbaa !288
  store i32 %1, ptr %4, align 4, !tbaa !178
  %5 = load ptr, ptr %3, align 8
  %6 = getelementptr inbounds nuw %class.vector.41, ptr %5, i32 0, i32 0
  %7 = load ptr, ptr %6, align 8, !tbaa !290
  %8 = load i32, ptr %4, align 4, !tbaa !178
  %9 = zext i32 %8 to i64
  %10 = getelementptr inbounds nuw %"class.sat::justification", ptr %7, i64 %9
  ret ptr %10
}

; Function Attrs: mustprogress nounwind uwtable
define linkonce_odr hidden void @_ZN3sat7literalC2Ejb(ptr noundef nonnull align 4 dereferenceable(4) %0, i32 noundef %1, i1 noundef zeroext %2) unnamed_addr #7 comdat align 2 {
  %4 = alloca ptr, align 8
  %5 = alloca i32, align 4
  %6 = alloca i8, align 1
  store ptr %0, ptr %4, align 8, !tbaa !207
  store i32 %1, ptr %5, align 4, !tbaa !178
  %7 = zext i1 %2 to i8
  store i8 %7, ptr %6, align 1, !tbaa !179
  %8 = load ptr, ptr %4, align 8
  %9 = getelementptr inbounds nuw %"class.sat::literal", ptr %8, i32 0, i32 0
  %10 = load i32, ptr %5, align 4, !tbaa !178
  %11 = shl i32 %10, 1
  %12 = load i8, ptr %6, align 1, !tbaa !179, !range !180, !noundef !181
  %13 = trunc i8 %12 to i1
  %14 = zext i1 %13 to i32
  %15 = add i32 %11, %14
  store i32 %15, ptr %9, align 4, !tbaa !236
  ret void
}

; Function Attrs: mustprogress uwtable
define linkonce_odr hidden noundef i32 @_ZNK3sat6solver5valueEj(ptr noundef nonnull align 8 dereferenceable(4264) %0, i32 noundef %1) #4 comdat align 2 {
  %3 = alloca ptr, align 8
  %4 = alloca i32, align 4
  %5 = alloca %"class.sat::literal", align 4
  store ptr %0, ptr %3, align 8, !tbaa !237
  store i32 %1, ptr %4, align 4, !tbaa !178
  %6 = load ptr, ptr %3, align 8
  %7 = getelementptr inbounds nuw %"class.sat::solver", ptr %6, i32 0, i32 36
  call void @llvm.lifetime.start.p0(i64 4, ptr %5) #3
  %8 = load i32, ptr %4, align 4, !tbaa !178
  call void @_ZN3sat7literalC2Ejb(ptr noundef nonnull align 4 dereferenceable(4) %5, i32 noundef %8, i1 noundef zeroext false)
  %9 = call noundef i32 @_ZNK3sat7literal5indexEv(ptr noundef nonnull align 4 dereferenceable(4) %5)
  %10 = call noundef nonnull align 4 dereferenceable(4) ptr @_ZNK6vectorI5lboolLb0EjEixEj(ptr noundef nonnull align 8 dereferenceable(8) %7, i32 noundef %9)
  %11 = load i32, ptr %10, align 4, !tbaa !239
  call void @llvm.lifetime.end.p0(i64 4, ptr %5) #3
  ret i32 %11
}

; Function Attrs: mustprogress nounwind uwtable
define linkonce_odr hidden void @_ZNK3sat6solver17get_justificationEj(ptr dead_on_unwind noalias writable sret(%"class.sat::justification") align 8 %0, ptr noundef nonnull align 8 dereferenceable(4264) %1, i32 noundef %2) #7 comdat align 2 {
  %4 = alloca ptr, align 8
  %5 = alloca i32, align 4
  store ptr %1, ptr %4, align 8, !tbaa !237
  store i32 %2, ptr %5, align 4, !tbaa !178
  %6 = load ptr, ptr %4, align 8
  %7 = getelementptr inbounds nuw %"class.sat::solver", ptr %6, i32 0, i32 37
  %8 = load i32, ptr %5, align 4, !tbaa !178
  %9 = call noundef nonnull align 8 dereferenceable(20) ptr @_ZNK6vectorIN3sat13justificationELb0EjEixEj(ptr noundef nonnull align 8 dereferenceable(8) %7, i32 noundef %8)
  call void @llvm.memcpy.p0.p0.i64(ptr align 8 %0, ptr align 8 %9, i64 24, i1 false), !tbaa.struct !211
  ret void
}

; Function Attrs: mustprogress uwtable
define hidden void @_ZN3sat10proof_trim8add_coreEj(ptr noundef nonnull align 8 dereferenceable(4376) %0, i32 noundef %1) #4 align 2 {
  %3 = alloca ptr, align 8
  %4 = alloca i32, align 4
  %5 = alloca %"class.sat::justification", align 8
  %6 = alloca %"class.sat::literal", align 4
  %7 = alloca %"class.sat::literal", align 4
  %8 = alloca %"class.sat::justification", align 8
  store ptr %0, ptr %3, align 8, !tbaa !3
  store i32 %1, ptr %4, align 4, !tbaa !178
  %9 = load ptr, ptr %3, align 8
  call void @llvm.lifetime.start.p0(i64 24, ptr %5) #3
  %10 = getelementptr inbounds nuw %"class.sat::proof_trim", ptr %9, i32 0, i32 0
  %11 = load i32, ptr %4, align 4, !tbaa !178
  call void @_ZNK3sat6solver17get_justificationEj(ptr dead_on_unwind writable sret(%"class.sat::justification") align 8 %5, ptr noundef nonnull align 8 dereferenceable(4264) %10, i32 noundef %11)
  call void @llvm.lifetime.start.p0(i64 4, ptr %6) #3
  %12 = load i32, ptr %4, align 4, !tbaa !178
  %13 = getelementptr inbounds nuw %"class.sat::proof_trim", ptr %9, i32 0, i32 0
  %14 = load i32, ptr %4, align 4, !tbaa !178
  %15 = call noundef i32 @_ZNK3sat6solver5valueEj(ptr noundef nonnull align 8 dereferenceable(4264) %13, i32 noundef %14)
  %16 = icmp eq i32 %15, -1
  call void @_ZN3sat7literalC2Ejb(ptr noundef nonnull align 4 dereferenceable(4) %6, i32 noundef %12, i1 noundef zeroext %16)
  call void @llvm.memcpy.p0.p0.i64(ptr align 4 %7, ptr align 4 %6, i64 4, i1 false), !tbaa.struct !208
  call void @llvm.memcpy.p0.p0.i64(ptr align 8 %8, ptr align 8 %5, i64 24, i1 false), !tbaa.struct !211
  %17 = getelementptr inbounds nuw %"class.sat::literal", ptr %7, i32 0, i32 0
  %18 = load i32, ptr %17, align 4
  call void @_ZN3sat10proof_trim8add_coreENS_7literalENS_13justificationE(ptr noundef nonnull align 8 dereferenceable(4376) %9, i32 %18, ptr noundef byval(%"class.sat::justification") align 8 %8)
  call void @llvm.lifetime.end.p0(i64 4, ptr %6) #3
  call void @llvm.lifetime.end.p0(i64 24, ptr %5) #3
  ret void
}