; Function Attrs: mustprogress uwtable
define hidden void @_ZN3sat10proof_trim8add_coreEj(ptr noundef nonnull align 8 dereferenceable(4376) %0, i32 noundef %1) local_unnamed_addr #3 align 2 {
  %3 = getelementptr inbounds nuw i8, ptr %0, i64 3296
  %4 = load ptr, ptr %3, align 8, !tbaa !16, !noalias !246
  %5 = zext i32 %1 to i64
  %6 = getelementptr inbounds nuw %"class.sat::justification", ptr %4, i64 %5
  %7 = getelementptr inbounds nuw i8, ptr %0, i64 3288
  %8 = shl i32 %1, 1
  %9 = load ptr, ptr %7, align 8, !tbaa !204
  %10 = zext i32 %8 to i64
  %11 = getelementptr inbounds nuw i32, ptr %9, i64 %10
  %12 = load i32, ptr %11, align 4, !tbaa !205
  %13 = icmp eq i32 %12, -1
  %14 = zext i1 %13 to i32
  %15 = or disjoint i32 %8, %14
  tail call void @_ZN3sat10proof_trim8add_coreENS_7literalENS_13justificationE(ptr noundef nonnull align 8 dereferenceable(4376) %0, i32 %15, ptr noundef nonnull byval(%"class.sat::justification") align 8 %6)
  ret void
}